target datalayout = "e-m:e-p270:32:32-p271:32:32-p272:64:64-i64:64-i128:128-f80:128-n8:16:32:64-S128"
target triple = "x86_64-pc-linux-gnu"

; Function Attrs: nounwind uwtable
define i32 @ff_cbs_read_packet_side_data(ptr noundef %0, ptr noundef %1, ptr noundef %2) #3 {
  %4 = alloca ptr, align 8
  %5 = alloca ptr, align 8
  %6 = alloca ptr, align 8
  %7 = alloca i64, align 8
  %8 = alloca ptr, align 8
  store ptr %0, ptr %4, align 8, !tbaa !22
  store ptr %1, ptr %5, align 8, !tbaa !39
  store ptr %2, ptr %6, align 8, !tbaa !83
  call void @llvm.lifetime.start.p0(i64 8, ptr %7) #13
  call void @llvm.lifetime.start.p0(i64 8, ptr %8) #13
  %9 = load ptr, ptr %6, align 8, !tbaa !83
  %10 = call ptr @av_packet_get_side_data(ptr noundef %9, i32 noundef 1, ptr noundef %7)
  store ptr %10, ptr %8, align 8, !tbaa !66
  %11 = load ptr, ptr %4, align 8, !tbaa !22
  %12 = load ptr, ptr %5, align 8, !tbaa !39
  %13 = load ptr, ptr %8, align 8, !tbaa !66
  %14 = load i64, ptr %7, align 8, !tbaa !67
  %15 = call i32 @cbs_read_data(ptr noundef %11, ptr noundef %12, ptr noundef null, ptr noundef %13, i64 noundef %14, i32 noundef 1)
  call void @llvm.lifetime.end.p0(i64 8, ptr %8) #13
  call void @llvm.lifetime.end.p0(i64 8, ptr %7) #13
  ret i32 %15
}