; Function Attrs: nounwind uwtable
define range(i32 -2147483648, 1) i32 @ff_cbs_read_packet_side_data(ptr noundef %0, ptr noundef %1, ptr noundef %2) local_unnamed_addr #3 {
  %4 = alloca i64, align 8
  call void @llvm.lifetime.start.p0(i64 8, ptr nonnull %4) #10
  %5 = call ptr @av_packet_get_side_data(ptr noundef %2, i32 noundef 1, ptr noundef nonnull %4) #10
  %6 = load i64, ptr %4, align 8, !tbaa !80
  %7 = call fastcc i32 @cbs_read_data(ptr noundef %0, ptr noundef %1, ptr noundef null, ptr noundef %5, i64 noundef %6, i32 noundef 1)
  call void @llvm.lifetime.end.p0(i64 8, ptr nonnull %4) #10
  ret i32 %7
}